; Function Attrs: nounwind sspstrong uwtable
define internal void @cpu_set_mvendorid(ptr noundef %obj, ptr noundef %v, ptr noundef %name, ptr readnone captures(none) %opaque, ptr noundef %errp) #3 {
entry:
  %value = alloca i32, align 4
  %call.i = tail call ptr @object_dynamic_cast(ptr noundef %obj, ptr noundef nonnull @.str.316) #14
  %call.i6 = tail call ptr @object_dynamic_cast_assert(ptr noundef %obj, ptr noundef nonnull @.str.250, ptr noundef nonnull @.str.282, i32 noundef 46, ptr noundef nonnull @__func__.RISCV_CPU) #14
  %mvendorid = getelementptr inbounds nuw i8, ptr %call.i6, i64 15392
  %0 = load i32, ptr %mvendorid, align 16
  %call2 = call zeroext i1 @visit_type_uint32(ptr noundef %v, ptr noundef %name, ptr noundef nonnull %value, ptr noundef %errp) #14
  br i1 %call2, label %if.end, label %return

if.end:                                           ; preds = %entry
  %cmp.i = icmp ne ptr %call.i, null
  %1 = load i32, ptr %value, align 4
  %cmp.not = icmp eq i32 %0, %1
  %or.cond = select i1 %cmp.i, i1 true, i1 %cmp.not
  br i1 %or.cond, label %if.end5, label %if.then3

if.then3:                                         ; preds = %if.end
  %call4 = call ptr @object_get_typename(ptr noundef %obj) #14
  call void (ptr, ptr, i32, ptr, ptr, ...) @error_setg_internal(ptr noundef %errp, ptr noundef nonnull @.str.218, i32 noundef 1566, ptr noundef nonnull @__func__.cpu_set_mvendorid, ptr noundef nonnull @.str.350, ptr noundef %call4, i32 noundef %0) #14
  br label %return

if.end5:                                          ; preds = %if.end
  store i32 %1, ptr %mvendorid, align 16
  br label %return

return:                                           ; preds = %entry, %if.end5, %if.then3
  ret void
}